; Function Attrs: mustprogress uwtable
define hidden noundef nonnull ptr @_ZN4ncnn28LRN_x86_avx512_layer_creatorEPv(ptr readnone captures(none) %0) #2 personality ptr @__gxx_personality_v0 {
  %2 = tail call noalias noundef nonnull dereferenceable(232) ptr @_Znwm(i64 noundef 232) #21
  invoke void @_ZN4ncnn3LRNC2Ev(ptr noundef nonnull align 8 dereferenceable(228) %2)
          to label %3 unwind label %4

3:                                                ; preds = %1
  store ptr getelementptr inbounds nuw inrange(-16, 80) (i8, ptr @_ZTVN4ncnn14LRN_x86_avx512E, i64 16), ptr %2, align 8, !tbaa !38
  ret ptr %2

4:                                                ; preds = %1
  %5 = landingpad { ptr, i32 }
          cleanup
  tail call void @_ZdlPvm(ptr noundef nonnull %2, i64 noundef 232) #19
  resume { ptr, i32 } %5
}